target datalayout = "e-m:e-p270:32:32-p271:32:32-p272:64:64-i64:64-i128:128-f80:128-n8:16:32:64-S128"
target triple = "x86_64-pc-linux-gnu"

%struct.archive_rb_tree = type { ptr, ptr }
%struct.isoent = type { %struct.archive_rb_node, ptr, ptr, %struct.anon.3, %struct.archive_rb_tree, %struct.anon.4, ptr, ptr, ptr, ptr, i32, %struct.anon.5, i32, i32, ptr, i32, i32, i32, i32, ptr, ptr, %struct.anon.6, i8 }
%struct.archive_rb_node = type { [2 x ptr], i64 }
%struct.anon.3 = type { ptr, ptr, i32 }
%struct.anon.4 = type { ptr, ptr, i32 }
%struct.anon.5 = type { i32, i32, i32, i32 }
%struct.anon.6 = type { ptr, ptr, ptr }

; Function Attrs: nounwind uwtable
define internal i32 @isoent_cmp_iso9660_identifier(ptr noundef %0, ptr noundef %1) #0 {
  %3 = alloca i32, align 4
  %4 = alloca ptr, align 8
  %5 = alloca ptr, align 8
  %6 = alloca ptr, align 8
  %7 = alloca ptr, align 8
  %8 = alloca i32, align 4
  %9 = alloca i32, align 4
  %10 = alloca i32, align 4
  store ptr %0, ptr %4, align 8, !tbaa !141
  store ptr %1, ptr %5, align 8, !tbaa !141
  call void @llvm.lifetime.start.p0(i64 8, ptr %6) #13
  call void @llvm.lifetime.start.p0(i64 8, ptr %7) #13
  call void @llvm.lifetime.start.p0(i64 4, ptr %8) #13
  call void @llvm.lifetime.start.p0(i64 4, ptr %9) #13
  %11 = load ptr, ptr %4, align 8, !tbaa !141
  %12 = getelementptr inbounds nuw %struct.isoent, ptr %11, i32 0, i32 14
  %13 = load ptr, ptr %12, align 8, !tbaa !237
  store ptr %13, ptr %6, align 8, !tbaa !133
  %14 = load ptr, ptr %5, align 8, !tbaa !141
  %15 = getelementptr inbounds nuw %struct.isoent, ptr %14, i32 0, i32 14
  %16 = load ptr, ptr %15, align 8, !tbaa !237
  store ptr %16, ptr %7, align 8, !tbaa !133
  %17 = load ptr, ptr %4, align 8, !tbaa !141
  %18 = getelementptr inbounds nuw %struct.isoent, ptr %17, i32 0, i32 15
  %19 = load i32, ptr %18, align 8, !tbaa !363
  store i32 %19, ptr %9, align 4, !tbaa !11
  %20 = load i32, ptr %9, align 4, !tbaa !11
  %21 = load ptr, ptr %5, align 8, !tbaa !141
  %22 = getelementptr inbounds nuw %struct.isoent, ptr %21, i32 0, i32 15
  %23 = load i32, ptr %22, align 8, !tbaa !363
  %24 = icmp sgt i32 %20, %23
  br i1 %24, label %25, label %29

25:                                               ; preds = %2
  %26 = load ptr, ptr %5, align 8, !tbaa !141
  %27 = getelementptr inbounds nuw %struct.isoent, ptr %26, i32 0, i32 15
  %28 = load i32, ptr %27, align 8, !tbaa !363
  store i32 %28, ptr %9, align 4, !tbaa !11
  br label %29

29:                                               ; preds = %25, %2
  %30 = load ptr, ptr %6, align 8, !tbaa !133
  %31 = load ptr, ptr %7, align 8, !tbaa !133
  %32 = load i32, ptr %9, align 4, !tbaa !11
  %33 = sext i32 %32 to i64
  %34 = call i32 @memcmp(ptr noundef %30, ptr noundef %31, i64 noundef %33) #15
  store i32 %34, ptr %8, align 4, !tbaa !11
  %35 = load i32, ptr %8, align 4, !tbaa !11
  %36 = icmp ne i32 %35, 0
  br i1 %36, label %37, label %39

37:                                               ; preds = %29
  %38 = load i32, ptr %8, align 4, !tbaa !11
  store i32 %38, ptr %3, align 4
  store i32 1, ptr %10, align 4
  br label %272

39:                                               ; preds = %29
  %40 = load ptr, ptr %4, align 8, !tbaa !141
  %41 = getelementptr inbounds nuw %struct.isoent, ptr %40, i32 0, i32 15
  %42 = load i32, ptr %41, align 8, !tbaa !363
  %43 = load ptr, ptr %5, align 8, !tbaa !141
  %44 = getelementptr inbounds nuw %struct.isoent, ptr %43, i32 0, i32 15
  %45 = load i32, ptr %44, align 8, !tbaa !363
  %46 = icmp slt i32 %42, %45
  br i1 %46, label %47, label %77

47:                                               ; preds = %39
  %48 = load i32, ptr %9, align 4, !tbaa !11
  %49 = load ptr, ptr %7, align 8, !tbaa !133
  %50 = sext i32 %48 to i64
  %51 = getelementptr inbounds i8, ptr %49, i64 %50
  store ptr %51, ptr %7, align 8, !tbaa !133
  %52 = load ptr, ptr %5, align 8, !tbaa !141
  %53 = getelementptr inbounds nuw %struct.isoent, ptr %52, i32 0, i32 15
  %54 = load i32, ptr %53, align 8, !tbaa !363
  %55 = load ptr, ptr %4, align 8, !tbaa !141
  %56 = getelementptr inbounds nuw %struct.isoent, ptr %55, i32 0, i32 15
  %57 = load i32, ptr %56, align 8, !tbaa !363
  %58 = sub nsw i32 %54, %57
  store i32 %58, ptr %9, align 4, !tbaa !11
  br label %59

59:                                               ; preds = %75, %47
  %60 = load i32, ptr %9, align 4, !tbaa !11
  %61 = add nsw i32 %60, -1
  store i32 %61, ptr %9, align 4, !tbaa !11
  %62 = icmp ne i32 %60, 0
  br i1 %62, label %63, label %76

63:                                               ; preds = %59
  %64 = load ptr, ptr %7, align 8, !tbaa !133
  %65 = getelementptr inbounds nuw i8, ptr %64, i32 1
  store ptr %65, ptr %7, align 8, !tbaa !133
  %66 = load i8, ptr %64, align 1, !tbaa !117
  %67 = sext i8 %66 to i32
  %68 = icmp ne i32 32, %67
  br i1 %68, label %69, label %75

69:                                               ; preds = %63
  %70 = load ptr, ptr %7, align 8, !tbaa !133
  %71 = getelementptr inbounds i8, ptr %70, i64 -1
  %72 = load i8, ptr %71, align 1, !tbaa !117
  %73 = zext i8 %72 to i32
  %74 = sub nsw i32 32, %73
  store i32 %74, ptr %3, align 4
  store i32 1, ptr %10, align 4
  br label %272

75:                                               ; preds = %63
  br label %59, !llvm.loop !394

76:                                               ; preds = %59
  br label %116

77:                                               ; preds = %39
  %78 = load ptr, ptr %4, align 8, !tbaa !141
  %79 = getelementptr inbounds nuw %struct.isoent, ptr %78, i32 0, i32 15
  %80 = load i32, ptr %79, align 8, !tbaa !363
  %81 = load ptr, ptr %5, align 8, !tbaa !141
  %82 = getelementptr inbounds nuw %struct.isoent, ptr %81, i32 0, i32 15
  %83 = load i32, ptr %82, align 8, !tbaa !363
  %84 = icmp sgt i32 %80, %83
  br i1 %84, label %85, label %115

85:                                               ; preds = %77
  %86 = load i32, ptr %9, align 4, !tbaa !11
  %87 = load ptr, ptr %6, align 8, !tbaa !133
  %88 = sext i32 %86 to i64
  %89 = getelementptr inbounds i8, ptr %87, i64 %88
  store ptr %89, ptr %6, align 8, !tbaa !133
  %90 = load ptr, ptr %4, align 8, !tbaa !141
  %91 = getelementptr inbounds nuw %struct.isoent, ptr %90, i32 0, i32 15
  %92 = load i32, ptr %91, align 8, !tbaa !363
  %93 = load ptr, ptr %5, align 8, !tbaa !141
  %94 = getelementptr inbounds nuw %struct.isoent, ptr %93, i32 0, i32 15
  %95 = load i32, ptr %94, align 8, !tbaa !363
  %96 = sub nsw i32 %92, %95
  store i32 %96, ptr %9, align 4, !tbaa !11
  br label %97

97:                                               ; preds = %113, %85
  %98 = load i32, ptr %9, align 4, !tbaa !11
  %99 = add nsw i32 %98, -1
  store i32 %99, ptr %9, align 4, !tbaa !11
  %100 = icmp ne i32 %98, 0
  br i1 %100, label %101, label %114

101:                                              ; preds = %97
  %102 = load ptr, ptr %6, align 8, !tbaa !133
  %103 = getelementptr inbounds nuw i8, ptr %102, i32 1
  store ptr %103, ptr %6, align 8, !tbaa !133
  %104 = load i8, ptr %102, align 1, !tbaa !117
  %105 = sext i8 %104 to i32
  %106 = icmp ne i32 32, %105
  br i1 %106, label %107, label %113

107:                                              ; preds = %101
  %108 = load ptr, ptr %6, align 8, !tbaa !133
  %109 = getelementptr inbounds i8, ptr %108, i64 -1
  %110 = load i8, ptr %109, align 1, !tbaa !117
  %111 = zext i8 %110 to i32
  %112 = sub nsw i32 %111, 32
  store i32 %112, ptr %3, align 4
  store i32 1, ptr %10, align 4
  br label %272

113:                                              ; preds = %101
  br label %97, !llvm.loop !395

114:                                              ; preds = %97
  br label %115

115:                                              ; preds = %114, %77
  br label %116

116:                                              ; preds = %115, %76
  %117 = load ptr, ptr %4, align 8, !tbaa !141
  %118 = getelementptr inbounds nuw %struct.isoent, ptr %117, i32 0, i32 16
  %119 = load i32, ptr %118, align 4, !tbaa !364
  %120 = icmp eq i32 %119, 0
  br i1 %120, label %121, label %127

121:                                              ; preds = %116
  %122 = load ptr, ptr %5, align 8, !tbaa !141
  %123 = getelementptr inbounds nuw %struct.isoent, ptr %122, i32 0, i32 16
  %124 = load i32, ptr %123, align 4, !tbaa !364
  %125 = icmp eq i32 %124, 0
  br i1 %125, label %126, label %127

126:                                              ; preds = %121
  store i32 0, ptr %3, align 4
  store i32 1, ptr %10, align 4
  br label %272

127:                                              ; preds = %121, %116
  %128 = load ptr, ptr %4, align 8, !tbaa !141
  %129 = getelementptr inbounds nuw %struct.isoent, ptr %128, i32 0, i32 16
  %130 = load i32, ptr %129, align 4, !tbaa !364
  %131 = icmp eq i32 %130, 1
  br i1 %131, label %132, label %138

132:                                              ; preds = %127
  %133 = load ptr, ptr %5, align 8, !tbaa !141
  %134 = getelementptr inbounds nuw %struct.isoent, ptr %133, i32 0, i32 16
  %135 = load i32, ptr %134, align 4, !tbaa !364
  %136 = icmp eq i32 %135, 1
  br i1 %136, label %137, label %138

137:                                              ; preds = %132
  store i32 0, ptr %3, align 4
  store i32 1, ptr %10, align 4
  br label %272

138:                                              ; preds = %132, %127
  %139 = load ptr, ptr %4, align 8, !tbaa !141
  %140 = getelementptr inbounds nuw %struct.isoent, ptr %139, i32 0, i32 16
  %141 = load i32, ptr %140, align 4, !tbaa !364
  %142 = icmp sle i32 %141, 1
  br i1 %142, label %143, label %144

143:                                              ; preds = %138
  store i32 -1, ptr %3, align 4
  store i32 1, ptr %10, align 4
  br label %272

144:                                              ; preds = %138
  %145 = load ptr, ptr %5, align 8, !tbaa !141
  %146 = getelementptr inbounds nuw %struct.isoent, ptr %145, i32 0, i32 16
  %147 = load i32, ptr %146, align 4, !tbaa !364
  %148 = icmp sle i32 %147, 1
  br i1 %148, label %149, label %150

149:                                              ; preds = %144
  store i32 1, ptr %3, align 4
  store i32 1, ptr %10, align 4
  br label %272

150:                                              ; preds = %144
  %151 = load ptr, ptr %4, align 8, !tbaa !141
  %152 = getelementptr inbounds nuw %struct.isoent, ptr %151, i32 0, i32 16
  %153 = load i32, ptr %152, align 4, !tbaa !364
  store i32 %153, ptr %9, align 4, !tbaa !11
  %154 = load i32, ptr %9, align 4, !tbaa !11
  %155 = load ptr, ptr %5, align 8, !tbaa !141
  %156 = getelementptr inbounds nuw %struct.isoent, ptr %155, i32 0, i32 16
  %157 = load i32, ptr %156, align 4, !tbaa !364
  %158 = icmp sgt i32 %154, %157
  br i1 %158, label %159, label %163

159:                                              ; preds = %150
  %160 = load ptr, ptr %5, align 8, !tbaa !141
  %161 = getelementptr inbounds nuw %struct.isoent, ptr %160, i32 0, i32 16
  %162 = load i32, ptr %161, align 4, !tbaa !364
  store i32 %162, ptr %9, align 4, !tbaa !11
  br label %163

163:                                              ; preds = %159, %150
  %164 = load ptr, ptr %4, align 8, !tbaa !141
  %165 = getelementptr inbounds nuw %struct.isoent, ptr %164, i32 0, i32 14
  %166 = load ptr, ptr %165, align 8, !tbaa !237
  %167 = load ptr, ptr %4, align 8, !tbaa !141
  %168 = getelementptr inbounds nuw %struct.isoent, ptr %167, i32 0, i32 15
  %169 = load i32, ptr %168, align 8, !tbaa !363
  %170 = sext i32 %169 to i64
  %171 = getelementptr inbounds i8, ptr %166, i64 %170
  store ptr %171, ptr %6, align 8, !tbaa !133
  %172 = load ptr, ptr %5, align 8, !tbaa !141
  %173 = getelementptr inbounds nuw %struct.isoent, ptr %172, i32 0, i32 14
  %174 = load ptr, ptr %173, align 8, !tbaa !237
  %175 = load ptr, ptr %5, align 8, !tbaa !141
  %176 = getelementptr inbounds nuw %struct.isoent, ptr %175, i32 0, i32 15
  %177 = load i32, ptr %176, align 8, !tbaa !363
  %178 = sext i32 %177 to i64
  %179 = getelementptr inbounds i8, ptr %174, i64 %178
  store ptr %179, ptr %7, align 8, !tbaa !133
  %180 = load i32, ptr %9, align 4, !tbaa !11
  %181 = icmp sgt i32 %180, 1
  br i1 %181, label %182, label %193

182:                                              ; preds = %163
  %183 = load ptr, ptr %6, align 8, !tbaa !133
  %184 = load ptr, ptr %7, align 8, !tbaa !133
  %185 = load i32, ptr %9, align 4, !tbaa !11
  %186 = sext i32 %185 to i64
  %187 = call i32 @memcmp(ptr noundef %183, ptr noundef %184, i64 noundef %186) #15
  store i32 %187, ptr %8, align 4, !tbaa !11
  %188 = load i32, ptr %8, align 4, !tbaa !11
  %189 = icmp ne i32 %188, 0
  br i1 %189, label %190, label %192

190:                                              ; preds = %182
  %191 = load i32, ptr %8, align 4, !tbaa !11
  store i32 %191, ptr %3, align 4
  store i32 1, ptr %10, align 4
  br label %272

192:                                              ; preds = %182
  br label %193

193:                                              ; preds = %192, %163
  %194 = load ptr, ptr %4, align 8, !tbaa !141
  %195 = getelementptr inbounds nuw %struct.isoent, ptr %194, i32 0, i32 16
  %196 = load i32, ptr %195, align 4, !tbaa !364
  %197 = load ptr, ptr %5, align 8, !tbaa !141
  %198 = getelementptr inbounds nuw %struct.isoent, ptr %197, i32 0, i32 16
  %199 = load i32, ptr %198, align 4, !tbaa !364
  %200 = icmp slt i32 %196, %199
  br i1 %200, label %201, label %231

201:                                              ; preds = %193
  %202 = load i32, ptr %9, align 4, !tbaa !11
  %203 = load ptr, ptr %7, align 8, !tbaa !133
  %204 = sext i32 %202 to i64
  %205 = getelementptr inbounds i8, ptr %203, i64 %204
  store ptr %205, ptr %7, align 8, !tbaa !133
  %206 = load ptr, ptr %5, align 8, !tbaa !141
  %207 = getelementptr inbounds nuw %struct.isoent, ptr %206, i32 0, i32 16
  %208 = load i32, ptr %207, align 4, !tbaa !364
  %209 = load ptr, ptr %4, align 8, !tbaa !141
  %210 = getelementptr inbounds nuw %struct.isoent, ptr %209, i32 0, i32 16
  %211 = load i32, ptr %210, align 4, !tbaa !364
  %212 = sub nsw i32 %208, %211
  store i32 %212, ptr %9, align 4, !tbaa !11
  br label %213

213:                                              ; preds = %229, %201
  %214 = load i32, ptr %9, align 4, !tbaa !11
  %215 = add nsw i32 %214, -1
  store i32 %215, ptr %9, align 4, !tbaa !11
  %216 = icmp ne i32 %214, 0
  br i1 %216, label %217, label %230

217:                                              ; preds = %213
  %218 = load ptr, ptr %7, align 8, !tbaa !133
  %219 = getelementptr inbounds nuw i8, ptr %218, i32 1
  store ptr %219, ptr %7, align 8, !tbaa !133
  %220 = load i8, ptr %218, align 1, !tbaa !117
  %221 = sext i8 %220 to i32
  %222 = icmp ne i32 32, %221
  br i1 %222, label %223, label %229

223:                                              ; preds = %217
  %224 = load ptr, ptr %7, align 8, !tbaa !133
  %225 = getelementptr inbounds i8, ptr %224, i64 -1
  %226 = load i8, ptr %225, align 1, !tbaa !117
  %227 = zext i8 %226 to i32
  %228 = sub nsw i32 32, %227
  store i32 %228, ptr %3, align 4
  store i32 1, ptr %10, align 4
  br label %272

229:                                              ; preds = %217
  br label %213, !llvm.loop !396

230:                                              ; preds = %213
  br label %270

231:                                              ; preds = %193
  %232 = load ptr, ptr %4, align 8, !tbaa !141
  %233 = getelementptr inbounds nuw %struct.isoent, ptr %232, i32 0, i32 16
  %234 = load i32, ptr %233, align 4, !tbaa !364
  %235 = load ptr, ptr %5, align 8, !tbaa !141
  %236 = getelementptr inbounds nuw %struct.isoent, ptr %235, i32 0, i32 16
  %237 = load i32, ptr %236, align 4, !tbaa !364
  %238 = icmp sgt i32 %234, %237
  br i1 %238, label %239, label %269

239:                                              ; preds = %231
  %240 = load i32, ptr %9, align 4, !tbaa !11
  %241 = load ptr, ptr %6, align 8, !tbaa !133
  %242 = sext i32 %240 to i64
  %243 = getelementptr inbounds i8, ptr %241, i64 %242
  store ptr %243, ptr %6, align 8, !tbaa !133
  %244 = load ptr, ptr %4, align 8, !tbaa !141
  %245 = getelementptr inbounds nuw %struct.isoent, ptr %244, i32 0, i32 16
  %246 = load i32, ptr %245, align 4, !tbaa !364
  %247 = load ptr, ptr %5, align 8, !tbaa !141
  %248 = getelementptr inbounds nuw %struct.isoent, ptr %247, i32 0, i32 16
  %249 = load i32, ptr %248, align 4, !tbaa !364
  %250 = sub nsw i32 %246, %249
  store i32 %250, ptr %9, align 4, !tbaa !11
  br label %251

251:                                              ; preds = %267, %239
  %252 = load i32, ptr %9, align 4, !tbaa !11
  %253 = add nsw i32 %252, -1
  store i32 %253, ptr %9, align 4, !tbaa !11
  %254 = icmp ne i32 %252, 0
  br i1 %254, label %255, label %268

255:                                              ; preds = %251
  %256 = load ptr, ptr %6, align 8, !tbaa !133
  %257 = getelementptr inbounds nuw i8, ptr %256, i32 1
  store ptr %257, ptr %6, align 8, !tbaa !133
  %258 = load i8, ptr %256, align 1, !tbaa !117
  %259 = sext i8 %258 to i32
  %260 = icmp ne i32 32, %259
  br i1 %260, label %261, label %267

261:                                              ; preds = %255
  %262 = load ptr, ptr %6, align 8, !tbaa !133
  %263 = getelementptr inbounds i8, ptr %262, i64 -1
  %264 = load i8, ptr %263, align 1, !tbaa !117
  %265 = zext i8 %264 to i32
  %266 = sub nsw i32 %265, 32
  store i32 %266, ptr %3, align 4
  store i32 1, ptr %10, align 4
  br label %272

267:                                              ; preds = %255
  br label %251, !llvm.loop !397

268:                                              ; preds = %251
  br label %269

269:                                              ; preds = %268, %231
  br label %270

270:                                              ; preds = %269, %230
  %271 = load i32, ptr %8, align 4, !tbaa !11
  store i32 %271, ptr %3, align 4
  store i32 1, ptr %10, align 4
  br label %272

272:                                              ; preds = %270, %261, %223, %190, %149, %143, %137, %126, %107, %69, %37
  call void @llvm.lifetime.end.p0(i64 4, ptr %9) #13
  call void @llvm.lifetime.end.p0(i64 4, ptr %8) #13
  call void @llvm.lifetime.end.p0(i64 8, ptr %7) #13
  call void @llvm.lifetime.end.p0(i64 8, ptr %6) #13
  %273 = load i32, ptr %3, align 4
  ret i32 %273
}