; Function Attrs: nofree nounwind memory(read, inaccessiblemem: none) uwtable
define internal fastcc i32 @isoent_cmp_iso9660_identifier(ptr noundef readonly captures(none) %0, ptr noundef readonly captures(none) %1) unnamed_addr #15 {
  %3 = getelementptr inbounds nuw i8, ptr %0, i64 168
  %4 = load ptr, ptr %3, align 8, !tbaa !188
  %5 = getelementptr inbounds nuw i8, ptr %1, i64 168
  %6 = load ptr, ptr %5, align 8, !tbaa !188
  %7 = getelementptr inbounds nuw i8, ptr %0, i64 176
  %8 = load i32, ptr %7, align 8, !tbaa !323
  %9 = getelementptr inbounds nuw i8, ptr %1, i64 176
  %10 = load i32, ptr %9, align 8, !tbaa !323
  %11 = icmp sgt i32 %8, %10
  %spec.select = tail call i32 @llvm.smin.i32(i32 %8, i32 %10)
  %12 = sext i32 %spec.select to i64
  %13 = tail call i32 @memcmp(ptr noundef %4, ptr noundef %6, i64 noundef %12) #25
  %.not = icmp eq i32 %13, 0
  br i1 %.not, label %14, label %.loopexit

14:                                               ; preds = %2
  %15 = icmp slt i32 %8, %10
  br i1 %15, label %16, label %27

16:                                               ; preds = %14
  %17 = getelementptr inbounds i8, ptr %6, i64 %12
  %18 = sub nsw i32 %10, %8
  br label %19

19:                                               ; preds = %20, %16
  %.069 = phi ptr [ %17, %16 ], [ %22, %20 ]
  %.1 = phi i32 [ %18, %16 ], [ %21, %20 ]
  %.not92 = icmp eq i32 %.1, 0
  br i1 %.not92, label %.loopexit102, label %20

20:                                               ; preds = %19
  %21 = add nsw i32 %.1, -1
  %22 = getelementptr inbounds nuw i8, ptr %.069, i64 1
  %23 = load i8, ptr %.069, align 1, !tbaa !68
  %.not98 = icmp eq i8 %23, 32
  br i1 %.not98, label %19, label %24, !llvm.loop !342

24:                                               ; preds = %20
  %25 = zext i8 %23 to i32
  %26 = sub nsw i32 32, %25
  br label %.loopexit

27:                                               ; preds = %14
  br i1 %11, label %28, label %.loopexit102

28:                                               ; preds = %27
  %29 = getelementptr inbounds i8, ptr %4, i64 %12
  %30 = sub nsw i32 %8, %10
  br label %31

31:                                               ; preds = %32, %28
  %.071 = phi ptr [ %29, %28 ], [ %34, %32 ]
  %.2 = phi i32 [ %30, %28 ], [ %33, %32 ]
  %.not90 = icmp eq i32 %.2, 0
  br i1 %.not90, label %.loopexit102, label %32

32:                                               ; preds = %31
  %33 = add nsw i32 %.2, -1
  %34 = getelementptr inbounds nuw i8, ptr %.071, i64 1
  %35 = load i8, ptr %.071, align 1, !tbaa !68
  %.not91 = icmp eq i8 %35, 32
  br i1 %.not91, label %31, label %36, !llvm.loop !343

36:                                               ; preds = %32
  %37 = zext i8 %35 to i32
  %38 = add nsw i32 %37, -32
  br label %.loopexit

.loopexit102:                                     ; preds = %31, %19, %27
  %39 = getelementptr inbounds nuw i8, ptr %0, i64 180
  %40 = load i32, ptr %39, align 4, !tbaa !324
  switch i32 %40, label %49 [
    i32 0, label %41
    i32 1, label %45
  ]

41:                                               ; preds = %.loopexit102
  %42 = getelementptr inbounds nuw i8, ptr %1, i64 180
  %43 = load i32, ptr %42, align 4, !tbaa !324
  %44 = icmp eq i32 %43, 0
  br i1 %44, label %.loopexit, label %.thread100

45:                                               ; preds = %.loopexit102
  %46 = getelementptr inbounds nuw i8, ptr %1, i64 180
  %47 = load i32, ptr %46, align 4, !tbaa !324
  %48 = icmp eq i32 %47, 1
  br i1 %48, label %.loopexit, label %.thread100

.thread100:                                       ; preds = %45, %41
  br label %.loopexit

49:                                               ; preds = %.loopexit102
  %50 = icmp slt i32 %40, 2
  br i1 %50, label %.loopexit, label %51

51:                                               ; preds = %49
  %52 = getelementptr inbounds nuw i8, ptr %1, i64 180
  %53 = load i32, ptr %52, align 4, !tbaa !324
  %54 = icmp slt i32 %53, 2
  br i1 %54, label %.loopexit, label %55

55:                                               ; preds = %51
  %56 = icmp samesign ugt i32 %40, %53
  %spec.select99 = tail call i32 @llvm.umin.i32(i32 %40, i32 %53)
  %57 = sext i32 %8 to i64
  %58 = getelementptr inbounds i8, ptr %4, i64 %57
  %59 = sext i32 %10 to i64
  %60 = getelementptr inbounds i8, ptr %6, i64 %59
  %61 = zext nneg i32 %spec.select99 to i64
  %62 = tail call i32 @memcmp(ptr noundef %58, ptr noundef %60, i64 noundef %61) #25
  %.not93 = icmp eq i32 %62, 0
  br i1 %.not93, label %63, label %.loopexit

63:                                               ; preds = %55
  %64 = icmp samesign ult i32 %40, %53
  br i1 %64, label %65, label %76

65:                                               ; preds = %63
  %66 = getelementptr inbounds nuw i8, ptr %60, i64 %61
  %67 = sub nuw nsw i32 %53, %40
  br label %68

68:                                               ; preds = %69, %65
  %.170 = phi ptr [ %66, %65 ], [ %71, %69 ]
  %.4 = phi i32 [ %67, %65 ], [ %70, %69 ]
  %.not96 = icmp eq i32 %.4, 0
  br i1 %.not96, label %.loopexit, label %69

69:                                               ; preds = %68
  %70 = add nsw i32 %.4, -1
  %71 = getelementptr inbounds nuw i8, ptr %.170, i64 1
  %72 = load i8, ptr %.170, align 1, !tbaa !68
  %.not97 = icmp eq i8 %72, 32
  br i1 %.not97, label %68, label %73, !llvm.loop !344

73:                                               ; preds = %69
  %74 = zext i8 %72 to i32
  %75 = sub nsw i32 32, %74
  br label %.loopexit

76:                                               ; preds = %63
  br i1 %56, label %77, label %.loopexit

77:                                               ; preds = %76
  %78 = getelementptr inbounds nuw i8, ptr %58, i64 %61
  %79 = sub nuw nsw i32 %40, %53
  br label %80

80:                                               ; preds = %81, %77
  %.172 = phi ptr [ %78, %77 ], [ %83, %81 ]
  %.5 = phi i32 [ %79, %77 ], [ %82, %81 ]
  %.not94 = icmp eq i32 %.5, 0
  br i1 %.not94, label %.loopexit, label %81

81:                                               ; preds = %80
  %82 = add nsw i32 %.5, -1
  %83 = getelementptr inbounds nuw i8, ptr %.172, i64 1
  %84 = load i8, ptr %.172, align 1, !tbaa !68
  %.not95 = icmp eq i8 %84, 32
  br i1 %.not95, label %80, label %85, !llvm.loop !345

85:                                               ; preds = %81
  %86 = zext i8 %84 to i32
  %87 = add nsw i32 %86, -32
  br label %.loopexit

.loopexit:                                        ; preds = %80, %68, %.thread100, %76, %55, %51, %49, %45, %41, %2, %85, %73, %36, %24
  %.073 = phi i32 [ %26, %24 ], [ %75, %73 ], [ %87, %85 ], [ %38, %36 ], [ %13, %2 ], [ 0, %41 ], [ 0, %45 ], [ -1, %49 ], [ 1, %51 ], [ %62, %55 ], [ 0, %76 ], [ -1, %.thread100 ], [ 0, %68 ], [ 0, %80 ]
  ret i32 %.073
}